; Function Attrs: nounwind uwtable
define dso_local i64 @pg_current_wal_insert_lsn(ptr noundef readnone captures(none) %0) local_unnamed_addr #0 {
  %2 = tail call zeroext i1 @RecoveryInProgress() #9
  br i1 %2, label %3, label %8

3:                                                ; preds = %1
  %4 = tail call zeroext i1 @errstart_cold(i32 noundef 21, ptr noundef null) #10
  tail call void @llvm.assume(i1 %4)
  %5 = tail call i32 @errcode(i32 noundef 325) #9
  %6 = tail call i32 (ptr, ...) @errmsg(ptr noundef nonnull @.str.6) #9
  %7 = tail call i32 (ptr, ...) @errhint(ptr noundef nonnull @.str.7) #9
  tail call void @errfinish(ptr noundef nonnull @.str.1, i32 noundef 303, ptr noundef nonnull @__func__.pg_current_wal_insert_lsn) #9
  unreachable

8:                                                ; preds = %1
  %9 = tail call i64 @GetXLogInsertRecPtr() #9
  ret i64 %9
}